; Function Attrs: null_pointer_is_valid sspstrong uwtable
define internal noundef i32 @dissect_drda_pkgnamcsn(ptr noundef %0, ptr noundef %1, ptr noundef %2, ptr readnone captures(none) %3) #0 {
  %5 = tail call i32 @tvb_reported_length_remaining(ptr noundef %0, i32 noundef 2)
  %6 = tail call ptr @tvb_new_subset_length(ptr noundef %0, i32 noundef 0, i32 noundef %5)
  %7 = tail call i32 @tvb_reported_length_remaining(ptr noundef %6, i32 noundef 8)
  %8 = tail call ptr @tvb_new_subset_length(ptr noundef %6, i32 noundef 0, i32 noundef %7)
  %9 = tail call i32 @dissect_drda_pkgnam(ptr noundef %8, ptr noundef %1, ptr noundef %2, ptr readnone poison)
  %10 = load i32, ptr @hf_drda_pkgcnstkn, align 4
  %11 = tail call ptr @proto_tree_add_item(ptr noundef %2, i32 noundef %10, ptr noundef %6, i32 noundef %9, i32 noundef 8, i32 noundef 2)
  %12 = add i32 %9, 8
  %13 = load i32, ptr @hf_drda_pkgsn, align 4
  %14 = tail call ptr @proto_tree_add_item(ptr noundef %2, i32 noundef %13, ptr noundef %0, i32 noundef %12, i32 noundef 2, i32 noundef 0)
  %15 = add i32 %9, 10
  ret i32 %15
}